target datalayout = "e-m:e-p270:32:32-p271:32:32-p272:64:64-i64:64-i128:128-f80:128-n8:16:32:64-S128"
target triple = "x86_64-pc-linux-gnu"

%struct.X509_VERIFY_PARAM_st = type { ptr, i64, i32, i64, i32, i32, i32, i32, ptr, ptr, i32, ptr, ptr, i64, ptr, i64 }

@.str = private unnamed_addr constant [34 x i8] c"../openssl/crypto/x509/x509_vpm.c\00", align 1

; Function Attrs: nounwind uwtable
define void @X509_VERIFY_PARAM_move_peername(ptr noundef %0, ptr noundef %1) #0 {
  %3 = alloca ptr, align 8
  %4 = alloca ptr, align 8
  %5 = alloca ptr, align 8
  store ptr %0, ptr %3, align 8, !tbaa !3
  store ptr %1, ptr %4, align 8, !tbaa !3
  call void @llvm.lifetime.start.p0(i64 8, ptr %5) #6
  %6 = load ptr, ptr %4, align 8, !tbaa !3
  %7 = icmp ne ptr %6, null
  br i1 %7, label %8, label %12

8:                                                ; preds = %2
  %9 = load ptr, ptr %4, align 8, !tbaa !3
  %10 = getelementptr inbounds nuw %struct.X509_VERIFY_PARAM_st, ptr %9, i32 0, i32 11
  %11 = load ptr, ptr %10, align 8, !tbaa !19
  br label %13

12:                                               ; preds = %2
  br label %13

13:                                               ; preds = %12, %8
  %14 = phi ptr [ %11, %8 ], [ null, %12 ]
  store ptr %14, ptr %5, align 8, !tbaa !25
  %15 = load ptr, ptr %3, align 8, !tbaa !3
  %16 = getelementptr inbounds nuw %struct.X509_VERIFY_PARAM_st, ptr %15, i32 0, i32 11
  %17 = load ptr, ptr %16, align 8, !tbaa !19
  %18 = load ptr, ptr %5, align 8, !tbaa !25
  %19 = icmp ne ptr %17, %18
  br i1 %19, label %20, label %27

20:                                               ; preds = %13
  %21 = load ptr, ptr %3, align 8, !tbaa !3
  %22 = getelementptr inbounds nuw %struct.X509_VERIFY_PARAM_st, ptr %21, i32 0, i32 11
  %23 = load ptr, ptr %22, align 8, !tbaa !19
  call void @CRYPTO_free(ptr noundef %23, ptr noundef @.str, i32 noundef 429)
  %24 = load ptr, ptr %5, align 8, !tbaa !25
  %25 = load ptr, ptr %3, align 8, !tbaa !3
  %26 = getelementptr inbounds nuw %struct.X509_VERIFY_PARAM_st, ptr %25, i32 0, i32 11
  store ptr %24, ptr %26, align 8, !tbaa !19
  br label %27

27:                                               ; preds = %20, %13
  %28 = load ptr, ptr %4, align 8, !tbaa !3
  %29 = icmp ne ptr %28, null
  br i1 %29, label %30, label %33

30:                                               ; preds = %27
  %31 = load ptr, ptr %4, align 8, !tbaa !3
  %32 = getelementptr inbounds nuw %struct.X509_VERIFY_PARAM_st, ptr %31, i32 0, i32 11
  store ptr null, ptr %32, align 8, !tbaa !19
  br label %33

33:                                               ; preds = %30, %27
  call void @llvm.lifetime.end.p0(i64 8, ptr %5) #6
  ret void
}