; Function Attrs: nounwind uwtable
define void @X509_VERIFY_PARAM_move_peername(ptr noundef captures(none) %0, ptr noundef captures(address_is_null) %1) local_unnamed_addr #0 {
  %.not = icmp eq ptr %1, null
  br i1 %.not, label %6, label %3

3:                                                ; preds = %2
  %4 = getelementptr inbounds nuw i8, ptr %1, i64 72
  %5 = load ptr, ptr %4, align 8, !tbaa !17
  br label %6

6:                                                ; preds = %2, %3
  %7 = phi ptr [ %5, %3 ], [ null, %2 ]
  %8 = getelementptr inbounds nuw i8, ptr %0, i64 72
  %9 = load ptr, ptr %8, align 8, !tbaa !17
  %.not11 = icmp eq ptr %9, %7
  br i1 %.not11, label %11, label %10

10:                                               ; preds = %6
  tail call void @CRYPTO_free(ptr noundef %9, ptr noundef nonnull @.str, i32 noundef 429) #9
  store ptr %7, ptr %8, align 8, !tbaa !17
  br label %11

11:                                               ; preds = %10, %6
  br i1 %.not, label %14, label %12

12:                                               ; preds = %11
  %13 = getelementptr inbounds nuw i8, ptr %1, i64 72
  store ptr null, ptr %13, align 8, !tbaa !17
  br label %14

14:                                               ; preds = %12, %11
  ret void
}